target datalayout = "e-m:e-p270:32:32-p271:32:32-p272:64:64-i64:64-i128:128-f80:128-n8:16:32:64-S128"
target triple = "x86_64-pc-linux-gnu"

@.str.29 = private unnamed_addr constant [9 x i8] c"%d = %s\0A\00", align 1

; Function Attrs: nounwind uwtable
define void @Gia_ManProfileStructuresTest(ptr noundef %0) #0 {
  %2 = alloca ptr, align 8
  %3 = alloca i32, align 4
  store ptr %0, ptr %2, align 8
  store i32 0, ptr %3, align 4
  br label %4

4:                                                ; preds = %14, %1
  %5 = load i32, ptr %3, align 4
  %6 = icmp slt i32 %5, 24
  br i1 %6, label %7, label %17

7:                                                ; preds = %4
  %8 = load i32, ptr %3, align 4
  %9 = load i32, ptr %3, align 4
  %10 = sext i32 %9 to i64
  %11 = getelementptr inbounds [25 x ptr], ptr @GIA_TYPE_STRINGS, i64 0, i64 %10
  %12 = load ptr, ptr %11, align 8
  %13 = call i32 (ptr, ...) @printf(ptr noundef @.str.29, i32 noundef %8, ptr noundef %12)
  br label %14

14:                                               ; preds = %7
  %15 = load i32, ptr %3, align 4
  %16 = add nsw i32 %15, 1
  store i32 %16, ptr %3, align 4
  br label %4, !llvm.loop !31

17:                                               ; preds = %4
  ret void
}