; Function Attrs: nofree nounwind uwtable
define void @Gia_ManProfileStructuresTest(ptr noundef readnone captures(none) %0) local_unnamed_addr #11 {
  br label %2

2:                                                ; preds = %1, %2
  %indvars.iv = phi i64 [ 0, %1 ], [ %indvars.iv.next, %2 ]
  %3 = getelementptr inbounds nuw [25 x ptr], ptr @GIA_TYPE_STRINGS, i64 0, i64 %indvars.iv
  %4 = load ptr, ptr %3, align 8
  %5 = trunc nuw nsw i64 %indvars.iv to i32
  %6 = tail call i32 (ptr, ...) @printf(ptr noundef nonnull dereferenceable(1) @.str.29, i32 noundef %5, ptr noundef %4)
  %indvars.iv.next = add nuw nsw i64 %indvars.iv, 1
  %exitcond.not = icmp eq i64 %indvars.iv.next, 24
  br i1 %exitcond.not, label %7, label %2, !llvm.loop !33

7:                                                ; preds = %2
  ret void
}